target datalayout = "e-m:e-p270:32:32-p271:32:32-p272:64:64-i64:64-i128:128-f80:128-n8:16:32:64-S128"
target triple = "x86_64-pc-linux-gnu"

%"class.clang::ActionResult" = type { i64 }
%"class.clang::SourceLocation" = type { i32 }
%"class.clang::QualType" = type { %"class.llvm::PointerIntPair" }
%"class.llvm::PointerIntPair" = type { %"struct.llvm::detail::PunnedPointer" }
%"struct.llvm::detail::PunnedPointer" = type { [8 x i8] }
%"class.clang::OpaquePtr" = type { ptr }

; Function Attrs: mustprogress nounwind uwtable
define dso_local i64 @_ZN5clang8SemaObjC20ActOnObjCBridgedCastEPNS_5ScopeENS_14SourceLocationENS_18ObjCBridgeCastKindES3_NS_9OpaquePtrINS_8QualTypeEEES3_PNS_4ExprE(ptr noundef nonnull align 8 dereferenceable(328) %0, ptr noundef %1, i32 %2, i32 noundef %3, i32 %4, ptr %5, i32 %6, ptr noundef %7) #0 align 2 {
  %9 = alloca %"class.clang::ActionResult", align 8
  %10 = alloca %"class.clang::SourceLocation", align 4
  %11 = alloca %"class.clang::SourceLocation", align 4
  %12 = alloca %"class.clang::OpaquePtr", align 8
  %13 = alloca %"class.clang::SourceLocation", align 4
  %14 = alloca ptr, align 8
  %15 = alloca ptr, align 8
  %16 = alloca i32, align 4
  %17 = alloca ptr, align 8
  %18 = alloca ptr, align 8
  %19 = alloca ptr, align 8
  %20 = alloca %"class.clang::QualType", align 8
  %21 = alloca %"class.clang::OpaquePtr", align 8
  %22 = alloca %"class.clang::QualType", align 8
  %23 = alloca %"class.clang::QualType", align 8
  %24 = alloca %"class.clang::SourceLocation", align 4
  %25 = alloca %"class.clang::SourceLocation", align 4
  %26 = alloca %"class.clang::SourceLocation", align 4
  %27 = getelementptr inbounds nuw %"class.clang::SourceLocation", ptr %10, i32 0, i32 0
  store i32 %2, ptr %27, align 4
  %28 = getelementptr inbounds nuw %"class.clang::SourceLocation", ptr %11, i32 0, i32 0
  store i32 %4, ptr %28, align 4
  %29 = getelementptr inbounds nuw %"class.clang::OpaquePtr", ptr %12, i32 0, i32 0
  store ptr %5, ptr %29, align 8
  %30 = getelementptr inbounds nuw %"class.clang::SourceLocation", ptr %13, i32 0, i32 0
  store i32 %6, ptr %30, align 4
  store ptr %0, ptr %14, align 8
  store ptr %1, ptr %15, align 8
  store i32 %3, ptr %16, align 4
  store ptr %7, ptr %17, align 8
  %31 = load ptr, ptr %14, align 8
  %32 = call noundef nonnull align 8 dereferenceable(23096) ptr @_ZNK5clang8SemaBase13getASTContextEv(ptr noundef nonnull align 8 dereferenceable(8) %31)
  store ptr %32, ptr %18, align 8
  store ptr null, ptr %19, align 8
  call void @llvm.memcpy.p0.p0.i64(ptr align 8 %21, ptr align 8 %12, i64 8, i1 false)
  %33 = getelementptr inbounds nuw %"class.clang::OpaquePtr", ptr %21, i32 0, i32 0
  %34 = load ptr, ptr %33, align 8
  %35 = call i64 @_ZN5clang4Sema17GetTypeFromParserENS_9OpaquePtrINS_8QualTypeEEEPPNS_14TypeSourceInfoE(ptr %34, ptr noundef %19)
  %36 = getelementptr inbounds nuw %"class.clang::QualType", ptr %20, i32 0, i32 0
  %37 = getelementptr inbounds nuw %"class.llvm::PointerIntPair", ptr %36, i32 0, i32 0
  %38 = getelementptr inbounds nuw %"struct.llvm::detail::PunnedPointer", ptr %37, i32 0, i32 0
  store i64 %35, ptr %38, align 8
  %39 = load i32, ptr %16, align 4
  %40 = icmp eq i32 %39, 0
  br i1 %40, label %41, label %47

41:                                               ; preds = %8
  call void @llvm.memcpy.p0.p0.i64(ptr align 8 %22, ptr align 8 %20, i64 8, i1 false)
  %42 = load ptr, ptr %17, align 8
  %43 = getelementptr inbounds nuw %"class.clang::QualType", ptr %22, i32 0, i32 0
  %44 = getelementptr inbounds nuw %"class.llvm::PointerIntPair", ptr %43, i32 0, i32 0
  %45 = getelementptr inbounds nuw %"struct.llvm::detail::PunnedPointer", ptr %44, i32 0, i32 0
  %46 = load i64, ptr %45, align 8
  call void @_ZN5clang8SemaObjC23CheckTollFreeBridgeCastENS_8QualTypeEPNS_4ExprE(ptr noundef nonnull align 8 dereferenceable(328) %31, i64 %46, ptr noundef %42)
  br label %47

47:                                               ; preds = %41, %8
  %48 = load ptr, ptr %19, align 8
  %49 = icmp ne ptr %48, null
  br i1 %49, label %59, label %50

50:                                               ; preds = %47
  %51 = load ptr, ptr %18, align 8
  call void @llvm.memcpy.p0.p0.i64(ptr align 8 %23, ptr align 8 %20, i64 8, i1 false)
  call void @llvm.memcpy.p0.p0.i64(ptr align 4 %24, ptr align 4 %10, i64 4, i1 false)
  %52 = getelementptr inbounds nuw %"class.clang::QualType", ptr %23, i32 0, i32 0
  %53 = getelementptr inbounds nuw %"class.llvm::PointerIntPair", ptr %52, i32 0, i32 0
  %54 = getelementptr inbounds nuw %"struct.llvm::detail::PunnedPointer", ptr %53, i32 0, i32 0
  %55 = load i64, ptr %54, align 8
  %56 = getelementptr inbounds nuw %"class.clang::SourceLocation", ptr %24, i32 0, i32 0
  %57 = load i32, ptr %56, align 4
  %58 = call noundef ptr @_ZNK5clang10ASTContext24getTrivialTypeSourceInfoENS_8QualTypeENS_14SourceLocationE(ptr noundef nonnull align 8 dereferenceable(23096) %51, i64 %55, i32 %57)
  store ptr %58, ptr %19, align 8
  br label %59

59:                                               ; preds = %50, %47
  call void @llvm.memcpy.p0.p0.i64(ptr align 4 %25, ptr align 4 %10, i64 4, i1 false)
  %60 = load i32, ptr %16, align 4
  call void @llvm.memcpy.p0.p0.i64(ptr align 4 %26, ptr align 4 %11, i64 4, i1 false)
  %61 = load ptr, ptr %19, align 8
  %62 = load ptr, ptr %17, align 8
  %63 = getelementptr inbounds nuw %"class.clang::SourceLocation", ptr %25, i32 0, i32 0
  %64 = load i32, ptr %63, align 4
  %65 = getelementptr inbounds nuw %"class.clang::SourceLocation", ptr %26, i32 0, i32 0
  %66 = load i32, ptr %65, align 4
  %67 = call i64 @_ZN5clang8SemaObjC20BuildObjCBridgedCastENS_14SourceLocationENS_18ObjCBridgeCastKindES1_PNS_14TypeSourceInfoEPNS_4ExprE(ptr noundef nonnull align 8 dereferenceable(328) %31, i32 %64, i32 noundef %60, i32 %66, ptr noundef %61, ptr noundef %62)
  %68 = getelementptr inbounds nuw %"class.clang::ActionResult", ptr %9, i32 0, i32 0
  store i64 %67, ptr %68, align 8
  %69 = getelementptr inbounds nuw %"class.clang::ActionResult", ptr %9, i32 0, i32 0
  %70 = load i64, ptr %69, align 8
  ret i64 %70
}