; Function Attrs: mustprogress nounwind uwtable
define dso_local noundef i64 @_ZN5clang8SemaObjC20ActOnObjCBridgedCastEPNS_5ScopeENS_14SourceLocationENS_18ObjCBridgeCastKindES3_NS_9OpaquePtrINS_8QualTypeEEES3_PNS_4ExprE(ptr noundef nonnull align 8 dereferenceable(328) %0, ptr nocapture noundef readnone %1, i32 %2, i32 noundef %3, i32 %4, ptr %5, i32 %6, ptr noundef %7) local_unnamed_addr #0 align 2 {
  %9 = alloca ptr, align 8
  %10 = tail call noundef nonnull align 8 dereferenceable(23096) ptr @_ZNK5clang8SemaBase13getASTContextEv(ptr noundef nonnull align 8 dereferenceable(8) %0) #18
  store ptr null, ptr %9, align 8
  %11 = call i64 @_ZN5clang4Sema17GetTypeFromParserENS_9OpaquePtrINS_8QualTypeEEEPPNS_14TypeSourceInfoE(ptr %5, ptr noundef nonnull %9) #18
  %12 = icmp eq i32 %3, 0
  br i1 %12, label %13, label %14

13:                                               ; preds = %8
  call void @_ZN5clang8SemaObjC23CheckTollFreeBridgeCastENS_8QualTypeEPNS_4ExprE(ptr noundef nonnull align 8 dereferenceable(328) %0, i64 %11, ptr noundef %7)
  br label %14

14:                                               ; preds = %13, %8
  %15 = load ptr, ptr %9, align 8
  %.not = icmp eq ptr %15, null
  br i1 %.not, label %16, label %18

16:                                               ; preds = %14
  %17 = call noundef ptr @_ZNK5clang10ASTContext24getTrivialTypeSourceInfoENS_8QualTypeENS_14SourceLocationE(ptr noundef nonnull align 8 dereferenceable(23096) %10, i64 %11, i32 %2) #18
  store ptr %17, ptr %9, align 8
  br label %18

18:                                               ; preds = %16, %14
  %19 = phi ptr [ %17, %16 ], [ %15, %14 ]
  %20 = call i64 @_ZN5clang8SemaObjC20BuildObjCBridgedCastENS_14SourceLocationENS_18ObjCBridgeCastKindES1_PNS_14TypeSourceInfoEPNS_4ExprE(ptr noundef nonnull align 8 dereferenceable(328) %0, i32 %2, i32 noundef %3, i32 %4, ptr noundef %19, ptr noundef %7)
  ret i64 %20
}